; Function Attrs: nounwind sspstrong uwtable
define dso_local void @tcg_gen_gvec_2_ool(i32 noundef %0, i32 noundef %1, i32 noundef %2, i32 noundef %3, i32 noundef %4, ptr noundef readonly captures(none) %5) local_unnamed_addr #2 {
  switch i32 %2, label %9 [
    i32 8, label %7
    i32 16, label %7
    i32 32, label %7
  ]

7:                                                ; preds = %6, %6, %6
  %8 = icmp ule i32 %2, %3
  br label %check_size_align.exit.i

9:                                                ; preds = %6
  %10 = icmp eq i32 %2, %3
  br label %check_size_align.exit.i

check_size_align.exit.i:                          ; preds = %9, %7
  %.sink.i.i = phi i1 [ %8, %7 ], [ %10, %9 ]
  tail call void @llvm.assume(i1 %.sink.i.i)
  %11 = icmp ult i32 %3, 2049
  tail call void @llvm.assume(i1 %11)
  %12 = icmp samesign ugt i32 %3, 15
  %13 = select i1 %12, i32 15, i32 7
  %14 = and i32 %13, %3
  %15 = icmp eq i32 %14, 0
  tail call void @llvm.assume(i1 %15)
  %16 = add i32 %4, 2097152
  %17 = icmp ult i32 %16, 4194304
  br i1 %17, label %simd_desc.exit, label %18

18:                                               ; preds = %check_size_align.exit.i
  %19 = icmp ult i32 %4, 4194304
  tail call void @llvm.assume(i1 %19)
  br label %simd_desc.exit

simd_desc.exit:                                   ; preds = %check_size_align.exit.i, %18
  %20 = lshr i32 %2, 3
  %21 = lshr i32 %3, 3
  %22 = add nuw nsw i32 %21, 255
  %23 = icmp eq i32 %20, %21
  %24 = shl i32 %20, 8
  %25 = add i32 %24, 768
  %26 = and i32 %25, 768
  %27 = select i1 %23, i32 512, i32 %26
  %28 = and i32 %22, 255
  %29 = or disjoint i32 %28, %27
  %30 = shl i32 %4, 10
  %31 = or disjoint i32 %29, %30
  %32 = tail call ptr @tcg_constant_i32(i32 noundef %31) #10
  %33 = tail call ptr @tcg_temp_ebb_new_ptr() #10
  %34 = tail call ptr @tcg_temp_ebb_new_ptr() #10
  %35 = load ptr, ptr @tcg_env, align 8
  %36 = zext i32 %0 to i64
  tail call void @tcg_gen_addi_i64(ptr noundef %33, ptr noundef %35, i64 noundef range(i64 0, 4294967296) %36) #10
  %37 = load ptr, ptr @tcg_env, align 8
  %38 = zext i32 %1 to i64
  tail call void @tcg_gen_addi_i64(ptr noundef %34, ptr noundef %37, i64 noundef range(i64 0, 4294967296) %38) #10
  tail call void %5(ptr noundef %33, ptr noundef %34, ptr noundef %32) #10
  tail call void @tcg_temp_free_ptr(ptr noundef %33) #10
  tail call void @tcg_temp_free_ptr(ptr noundef %34) #10
  ret void
}